ccopy_reg
_reconstructor
p1
(cxmppd.modules.db_fake
DictWatch
p2
c__builtin__
dict
p3
(dp4
S'127.0.0.1'
p5
g1
(g2
g3
(dp6
S'acc'
p7
g1
(g2
g3
(dp8
S'name'
p9
S'ACC'
p10
sS'groups'
p11
g1
(g2
g3
(dtRp12
sS'roster'
p13
g1
(g2
g3
(dtRp14
sS'anon_allow'
p15
S'yes'
p16
sS'password'
p17
S'odxJYPrB'
p18
sS'storage'
p19
g1
(g2
g3
(dtRp20
stRp21
sS'df'
p22
g1
(g2
g3
(dp23
g9
S'DF'
p24
sg11
g1
(g2
g3
(dtRp25
sg13
g1
(g2
g3
(dtRp26
sg15
g16
sg17
S'FmXoOmCD'
p27
sg19
g1
(g2
g3
(dtRp28
stRp29
sVtraveler
p30
g1
(g2
g3
(dp31
S'name'
p32
Vtraveler
p33
sS'groups'
p34
g1
(g2
g3
(dtRp35
sS'roster'
p36
g1
(g2
g3
(dp37
Vams.127.0.0.1
p38
(dp39
S'state'
p40
S''
sS'subscription'
p41
S'to'
p42
sstRp43
sS'anon_allow'
p44
S'yes'
p45
sS'password'
p46
Vtraveler
p47
sS'storage'
p48
g1
(g2
g3
(dtRp49
stRp50
sS'ams'
p51
g1
(g2
g3
(dp52
g9
S'AMS'
p53
sg11
g1
(g2
g3
(dtRp54
sg13
g1
(g2
g3
(dp55
S'agency@127.0.0.1'
p56
(dp57
S'state'
p58
S''
sS'subscription'
p59
S'from'
p60
sstRp61
sg15
g16
sg17
S'xxyVkSBe'
p62
sg19
g1
(g2
g3
(dtRp63
stRp64
sVagency
p65
g1
(g2
g3
(dp66
S'name'
p67
Vagency
p68
sS'groups'
p69
g1
(g2
g3
(dtRp70
sS'roster'
p71
g1
(g2
g3
(dp72
Vams.127.0.0.1
p73
(dp74
S'state'
p75
S''
sS'subscription'
p76
S'to'
p77
sstRp78
sS'anon_allow'
p79
S'yes'
p80
sS'password'
p81
Vtravel
p82
sS'storage'
p83
g1
(g2
g3
(dtRp84
stRp85
sS'__ir__'
p86
(dp87
g15
g16
sg17
S'test'
p88
sg19
(dp89
S'karma'
p90
(dp91
S'down'
p92
I307200
sS'tot_up'
p93
I0
sS'tot_down'
p94
I0
sS'up'
p95
I307200307200307200
sS'last_time'
p96
F0
sssg11
(dp97
sg13
(dp98
sstRp99
stRp100
.