ccopy_reg
_reconstructor
p1
(cxmppd.modules.db_fake
DictWatch
p2
c__builtin__
dict
p3
(dp4
S'127.0.0.1'
p5
g1
(g2
g3
(dp6
S'acc'
p7
g1
(g2
g3
(dp8
S'name'
p9
S'ACC'
p10
sS'groups'
p11
g1
(g2
g3
(dtRp12
sS'roster'
p13
g1
(g2
g3
(dtRp14
sS'anon_allow'
p15
S'yes'
p16
sS'password'
p17
S'odxJYPrB'
p18
sS'storage'
p19
g1
(g2
g3
(dtRp20
stRp21
sS'df'
p22
g1
(g2
g3
(dp23
g9
S'DF'
p24
sg11
g1
(g2
g3
(dtRp25
sg13
g1
(g2
g3
(dtRp26
sg15
g16
sg17
S'FmXoOmCD'
p27
sg19
g1
(g2
g3
(dtRp28
stRp29
sVagency
p30
g1
(g2
g3
(dp31
S'name'
p32
Vagency
p33
sS'groups'
p34
g1
(g2
g3
(dtRp35
sS'roster'
p36
g1
(g2
g3
(dp37
Vams.127.0.0.1
p38
(dp39
S'state'
p40
S''
sS'subscription'
p41
S'to'
p42
sstRp43
sS'anon_allow'
p44
S'yes'
p45
sS'password'
p46
Vtravel
p47
sS'storage'
p48
g1
(g2
g3
(dtRp49
stRp50
sVagency1
p51
g1
(g2
g3
(dp52
S'name'
p53
Vagency1
p54
sS'groups'
p55
g1
(g2
g3
(dtRp56
sS'roster'
p57
g1
(g2
g3
(dp58
Vams.127.0.0.1
p59
(dp60
S'state'
p61
S''
sS'subscription'
p62
S'to'
p63
sstRp64
sS'anon_allow'
p65
S'yes'
p66
sS'password'
p67
Vagency01
p68
sS'storage'
p69
g1
(g2
g3
(dtRp70
stRp71
sVagency2
p72
g1
(g2
g3
(dp73
g53
Vagency2
p74
sg55
g1
(g2
g3
(dtRp75
sg57
g1
(g2
g3
(dp76
Vams.127.0.0.1
p77
(dp78
g61
S''
sg62
g63
sstRp79
sg65
g66
sg67
Vagency02
p80
sg69
g1
(g2
g3
(dtRp81
stRp82
sVtraveler
p83
g1
(g2
g3
(dp84
S'name'
p85
Vtraveler
p86
sS'groups'
p87
g1
(g2
g3
(dtRp88
sS'roster'
p89
g1
(g2
g3
(dp90
Vams.127.0.0.1
p91
(dp92
S'state'
p93
S''
sS'subscription'
p94
S'to'
p95
sstRp96
sS'anon_allow'
p97
S'yes'
p98
sS'password'
p99
Vtraveler
p100
sS'storage'
p101
g1
(g2
g3
(dtRp102
stRp103
sS'ams'
p104
g1
(g2
g3
(dp105
g9
S'AMS'
p106
sg11
g1
(g2
g3
(dtRp107
sg13
g1
(g2
g3
(dp108
S'agency1@127.0.0.1'
p109
(dp110
S'state'
p111
S''
sS'subscription'
p112
S'from'
p113
ssS'agency2@127.0.0.1'
p114
(dp115
g111
S''
sg112
g113
ssS'traveler@127.0.0.1'
p116
(dp117
g111
S''
sg112
g113
sstRp118
sg15
g16
sg17
S'xxyVkSBe'
p119
sg19
g1
(g2
g3
(dtRp120
stRp121
sS'__ir__'
p122
(dp123
g15
g16
sg17
S'test'
p124
sg19
(dp125
S'karma'
p126
(dp127
S'down'
p128
I307200
sS'tot_up'
p129
I0
sS'tot_down'
p130
I0
sS'up'
p131
I307200307200307200
sS'last_time'
p132
F0
sssg11
(dp133
sg13
(dp134
sstRp135
stRp136
.